; Function Attrs: mustprogress nofree norecurse nosync nounwind willreturn memory(argmem: readwrite) uwtable
define void @ucnv_setToUCallBack_77(ptr noundef captures(none) %0, ptr noundef %1, ptr noundef %2, ptr noundef writeonly %3, ptr noundef writeonly %4, ptr noundef readonly captures(none) %5) local_unnamed_addr #7 {
  %7 = load i32, ptr %5, align 4, !tbaa !3
  %8 = icmp slt i32 %7, 1
  br i1 %8, label %9, label %20

9:                                                ; preds = %6
  %.not12 = icmp eq ptr %3, null
  br i1 %.not12, label %13, label %10

10:                                               ; preds = %9
  %11 = getelementptr inbounds nuw i8, ptr %0, i64 8
  %12 = load ptr, ptr %11, align 8, !tbaa !38
  store ptr %12, ptr %3, align 8, !tbaa !51
  br label %13

13:                                               ; preds = %10, %9
  %14 = getelementptr inbounds nuw i8, ptr %0, i64 8
  store ptr %1, ptr %14, align 8, !tbaa !38
  %.not13 = icmp eq ptr %4, null
  br i1 %.not13, label %18, label %15

15:                                               ; preds = %13
  %16 = getelementptr inbounds nuw i8, ptr %0, i64 32
  %17 = load ptr, ptr %16, align 8, !tbaa !39
  store ptr %17, ptr %4, align 8, !tbaa !51
  br label %18

18:                                               ; preds = %15, %13
  %19 = getelementptr inbounds nuw i8, ptr %0, i64 32
  store ptr %2, ptr %19, align 8, !tbaa !39
  br label %20

20:                                               ; preds = %6, %18
  ret void
}